target datalayout = "e-m:e-p270:32:32-p271:32:32-p272:64:64-i64:64-i128:128-f80:128-n8:16:32:64-S128"
target triple = "x86_64-pc-linux-gnu"

@_ZZN2cvL26isAlignedAllocationEnabledEvE11useMemalign = internal global i8 0, align 1
@_ZGVZN2cvL26isAlignedAllocationEnabledEvE11useMemalign = internal global i64 0, align 8
@.str = private unnamed_addr constant [23 x i8] c"OPENCV_ENABLE_MEMALIGN\00", align 1

; Function Attrs: mustprogress uwtable
define internal noundef zeroext i1 @_ZN2cvL28readMemoryAlignmentParameterEv() #4 {
  %1 = alloca i8, align 1
  call void @llvm.lifetime.start.p0(i64 1, ptr %1) #3
  store i8 1, ptr %1, align 1, !tbaa !12
  store i8 0, ptr %1, align 1, !tbaa !12
  %2 = load i8, ptr %1, align 1, !tbaa !12, !range !15, !noundef !16
  %3 = trunc i8 %2 to i1
  %4 = call noundef zeroext i1 @_ZN2cv5utils29getConfigurationParameterBoolEPKcb(ptr noundef @.str, i1 noundef zeroext %3)
  %5 = zext i1 %4 to i8
  store i8 %5, ptr %1, align 1, !tbaa !12
  %6 = load i8, ptr %1, align 1, !tbaa !12, !range !15, !noundef !16
  %7 = trunc i8 %6 to i1
  call void @llvm.lifetime.end.p0(i64 1, ptr %1) #3
  ret i1 %7
}

; Function Attrs: inlinehint mustprogress uwtable
define internal noundef zeroext i1 @_ZN2cvL26isAlignedAllocationEnabledEv() #6 personality ptr @__gxx_personality_v0 {
  %1 = alloca ptr, align 8
  %2 = alloca i32, align 4
  %3 = load atomic i8, ptr @_ZGVZN2cvL26isAlignedAllocationEnabledEvE11useMemalign acquire, align 8
  %4 = icmp eq i8 %3, 0
  br i1 %4, label %5, label %12, !prof !14

5:                                                ; preds = %0
  %6 = call i32 @__cxa_guard_acquire(ptr @_ZGVZN2cvL26isAlignedAllocationEnabledEvE11useMemalign) #3
  %7 = icmp ne i32 %6, 0
  br i1 %7, label %8, label %12

8:                                                ; preds = %5
  %9 = invoke noundef zeroext i1 @_ZN2cvL28readMemoryAlignmentParameterEv()
          to label %10 unwind label %15

10:                                               ; preds = %8
  %11 = zext i1 %9 to i8
  store i8 %11, ptr @_ZZN2cvL26isAlignedAllocationEnabledEvE11useMemalign, align 1, !tbaa !12
  call void @__cxa_guard_release(ptr @_ZGVZN2cvL26isAlignedAllocationEnabledEvE11useMemalign) #3
  br label %12

12:                                               ; preds = %10, %5, %0
  %13 = load i8, ptr @_ZZN2cvL26isAlignedAllocationEnabledEvE11useMemalign, align 1, !tbaa !12, !range !15, !noundef !16
  %14 = trunc i8 %13 to i1
  ret i1 %14

15:                                               ; preds = %8
  %16 = landingpad { ptr, i32 }
          cleanup
  %17 = extractvalue { ptr, i32 } %16, 0
  store ptr %17, ptr %1, align 8
  %18 = extractvalue { ptr, i32 } %16, 1
  store i32 %18, ptr %2, align 4
  call void @__cxa_guard_abort(ptr @_ZGVZN2cvL26isAlignedAllocationEnabledEvE11useMemalign) #3
  br label %19

19:                                               ; preds = %15
  %20 = load ptr, ptr %1, align 8
  %21 = load i32, ptr %2, align 4
  %22 = insertvalue { ptr, i32 } poison, ptr %20, 0
  %23 = insertvalue { ptr, i32 } %22, i32 %21, 1
  resume { ptr, i32 } %23
}

; Function Attrs: mustprogress uwtable
define void @_ZN2cv8fastFreeEPv(ptr noundef %0) #4 {
  %2 = alloca ptr, align 8
  %3 = alloca ptr, align 8
  store ptr %0, ptr %2, align 8, !tbaa !19
  %4 = call noundef zeroext i1 @_ZN2cvL26isAlignedAllocationEnabledEv()
  br i1 %4, label %5, label %7

5:                                                ; preds = %1
  %6 = load ptr, ptr %2, align 8, !tbaa !19
  call void @free(ptr noundef %6) #3
  br label %15

7:                                                ; preds = %1
  %8 = load ptr, ptr %2, align 8, !tbaa !19
  %9 = icmp ne ptr %8, null
  br i1 %9, label %10, label %15

10:                                               ; preds = %7
  call void @llvm.lifetime.start.p0(i64 8, ptr %3) #3
  %11 = load ptr, ptr %2, align 8, !tbaa !19
  %12 = getelementptr inbounds ptr, ptr %11, i64 -1
  %13 = load ptr, ptr %12, align 8, !tbaa !20
  store ptr %13, ptr %3, align 8, !tbaa !20
  %14 = load ptr, ptr %3, align 8, !tbaa !20
  call void @free(ptr noundef %14) #3
  call void @llvm.lifetime.end.p0(i64 8, ptr %3) #3
  br label %15

15:                                               ; preds = %5, %10, %7
  ret void
}

; Function Attrs: mustprogress uwtable
define void @cvFree_(ptr noundef %0) #4 {
  %2 = alloca ptr, align 8
  store ptr %0, ptr %2, align 8, !tbaa !19
  %3 = load ptr, ptr %2, align 8, !tbaa !19
  call void @_ZN2cv8fastFreeEPv(ptr noundef %3)
  ret void
}